target datalayout = "e-m:e-p270:32:32-p271:32:32-p272:64:64-i64:64-i128:128-f80:128-n8:16:32:64-S128"
target triple = "x86_64-pc-linux-gnu"

%struct._zend_refcounted_h = type { i32, %union.anon }
%union.anon = type { i32 }
%struct._zend_string = type { %struct._zend_refcounted_h, i64, i64, [1 x i8] }

; Function Attrs: nounwind uwtable
define internal ptr @unserialize_str(ptr noundef %0, i64 noundef %1, i64 noundef %2) #0 {
  %4 = alloca ptr, align 8
  %5 = alloca i32, align 4
  %6 = alloca i64, align 8
  %7 = alloca i64, align 8
  %8 = alloca i64, align 8
  %9 = alloca i8, align 1
  %10 = alloca ptr, align 8
  %11 = alloca ptr, align 8
  %12 = alloca ptr, align 8
  %13 = alloca ptr, align 8
  %14 = alloca ptr, align 8
  %15 = alloca ptr, align 8
  %16 = alloca i64, align 8
  %17 = alloca i64, align 8
  %18 = alloca i64, align 8
  %19 = alloca i64, align 8
  %20 = alloca ptr, align 8
  %21 = alloca ptr, align 8
  %22 = alloca i8, align 1
  store ptr %0, ptr %15, align 8
  store i64 %1, ptr %16, align 8
  store i64 %2, ptr %17, align 8
  %23 = load i64, ptr %16, align 8
  store i64 1, ptr %6, align 8
  store i64 %23, ptr %7, align 8
  store i64 0, ptr %8, align 8
  store i8 0, ptr %9, align 1
  %24 = load i8, ptr %9, align 1
  %25 = trunc i8 %24 to i1
  br i1 %25, label %26, label %36

26:                                               ; preds = %3
  %27 = load i64, ptr %6, align 8
  %28 = load i64, ptr %7, align 8
  %29 = load i64, ptr %8, align 8
  %30 = add i64 24, %29
  %31 = add i64 %30, 1
  %32 = add i64 %31, 8
  %33 = sub i64 %32, 1
  %34 = and i64 %33, -8
  %35 = call noalias ptr @_safe_malloc(i64 noundef %27, i64 noundef %28, i64 noundef %34) #9
  br label %46

36:                                               ; preds = %3
  %37 = load i64, ptr %6, align 8
  %38 = load i64, ptr %7, align 8
  %39 = load i64, ptr %8, align 8
  %40 = add i64 24, %39
  %41 = add i64 %40, 1
  %42 = add i64 %41, 8
  %43 = sub i64 %42, 1
  %44 = and i64 %43, -8
  %45 = call noalias ptr @_safe_emalloc(i64 noundef %37, i64 noundef %38, i64 noundef %44) #9
  br label %46

46:                                               ; preds = %36, %26
  %47 = phi ptr [ %35, %26 ], [ %45, %36 ]
  store ptr %47, ptr %10, align 8
  %48 = load ptr, ptr %10, align 8
  store ptr %48, ptr %4, align 8
  store i32 1, ptr %5, align 4
  %49 = load i32, ptr %5, align 4
  %50 = load ptr, ptr %4, align 8
  store i32 %49, ptr %50, align 4
  %51 = load i8, ptr %9, align 1
  %52 = trunc i8 %51 to i1
  %53 = select i1 %52, i32 128, i32 0
  %54 = or i32 22, %53
  %55 = load ptr, ptr %10, align 8
  %56 = getelementptr inbounds %struct._zend_refcounted_h, ptr %55, i32 0, i32 1
  store i32 %54, ptr %56, align 4
  %57 = load ptr, ptr %10, align 8
  %58 = getelementptr inbounds %struct._zend_string, ptr %57, i32 0, i32 1
  store i64 0, ptr %58, align 8
  %59 = load i64, ptr %6, align 8
  %60 = load i64, ptr %7, align 8
  %61 = mul i64 %59, %60
  %62 = load i64, ptr %8, align 8
  %63 = add i64 %61, %62
  %64 = load ptr, ptr %10, align 8
  %65 = getelementptr inbounds %struct._zend_string, ptr %64, i32 0, i32 2
  store i64 %63, ptr %65, align 8
  %66 = load ptr, ptr %10, align 8
  store ptr %66, ptr %20, align 8
  %67 = load ptr, ptr %15, align 8
  %68 = load ptr, ptr %67, align 8
  %69 = load i64, ptr %17, align 8
  %70 = getelementptr inbounds i8, ptr %68, i64 %69
  store ptr %70, ptr %21, align 8
  %71 = load ptr, ptr %21, align 8
  %72 = load ptr, ptr %15, align 8
  %73 = load ptr, ptr %72, align 8
  %74 = icmp ult ptr %71, %73
  br i1 %74, label %75, label %78

75:                                               ; preds = %46
  %76 = load ptr, ptr %20, align 8
  store ptr %76, ptr %11, align 8
  %77 = load ptr, ptr %11, align 8
  call void @_efree(ptr noundef %77) #9
  store ptr null, ptr %14, align 8
  br label %214

78:                                               ; preds = %46
  store i64 0, ptr %18, align 8
  br label %79

79:                                               ; preds = %202, %78
  %80 = load i64, ptr %18, align 8
  %81 = load i64, ptr %16, align 8
  %82 = icmp ult i64 %80, %81
  br i1 %82, label %83, label %205

83:                                               ; preds = %79
  %84 = load ptr, ptr %15, align 8
  %85 = load ptr, ptr %84, align 8
  %86 = load ptr, ptr %21, align 8
  %87 = icmp uge ptr %85, %86
  br i1 %87, label %88, label %91

88:                                               ; preds = %83
  %89 = load ptr, ptr %20, align 8
  store ptr %89, ptr %12, align 8
  %90 = load ptr, ptr %12, align 8
  call void @_efree(ptr noundef %90) #9
  store ptr null, ptr %14, align 8
  br label %214

91:                                               ; preds = %83
  %92 = load ptr, ptr %15, align 8
  %93 = load ptr, ptr %92, align 8
  %94 = load i8, ptr %93, align 1
  %95 = zext i8 %94 to i32
  %96 = icmp ne i32 %95, 92
  br i1 %96, label %97, label %105

97:                                               ; preds = %91
  %98 = load ptr, ptr %15, align 8
  %99 = load ptr, ptr %98, align 8
  %100 = load i8, ptr %99, align 1
  %101 = load ptr, ptr %20, align 8
  %102 = getelementptr inbounds %struct._zend_string, ptr %101, i32 0, i32 3
  %103 = load i64, ptr %18, align 8
  %104 = getelementptr inbounds [1 x i8], ptr %102, i64 0, i64 %103
  store i8 %100, ptr %104, align 1
  br label %198

105:                                              ; preds = %91
  store i8 0, ptr %22, align 1
  store i64 0, ptr %19, align 8
  br label %106

106:                                              ; preds = %189, %105
  %107 = load i64, ptr %19, align 8
  %108 = icmp ult i64 %107, 2
  br i1 %108, label %109, label %192

109:                                              ; preds = %106
  %110 = load ptr, ptr %15, align 8
  %111 = load ptr, ptr %110, align 8
  %112 = getelementptr inbounds i8, ptr %111, i32 1
  store ptr %112, ptr %110, align 8
  %113 = load ptr, ptr %15, align 8
  %114 = load ptr, ptr %113, align 8
  %115 = load i8, ptr %114, align 1
  %116 = zext i8 %115 to i32
  %117 = icmp sge i32 %116, 48
  br i1 %117, label %118, label %135

118:                                              ; preds = %109
  %119 = load ptr, ptr %15, align 8
  %120 = load ptr, ptr %119, align 8
  %121 = load i8, ptr %120, align 1
  %122 = zext i8 %121 to i32
  %123 = icmp sle i32 %122, 57
  br i1 %123, label %124, label %135

124:                                              ; preds = %118
  %125 = load i8, ptr %22, align 1
  %126 = zext i8 %125 to i32
  %127 = shl i32 %126, 4
  %128 = load ptr, ptr %15, align 8
  %129 = load ptr, ptr %128, align 8
  %130 = load i8, ptr %129, align 1
  %131 = zext i8 %130 to i32
  %132 = sub nsw i32 %131, 48
  %133 = add nsw i32 %127, %132
  %134 = trunc i32 %133 to i8
  store i8 %134, ptr %22, align 1
  br label %188

135:                                              ; preds = %118, %109
  %136 = load ptr, ptr %15, align 8
  %137 = load ptr, ptr %136, align 8
  %138 = load i8, ptr %137, align 1
  %139 = zext i8 %138 to i32
  %140 = icmp sge i32 %139, 97
  br i1 %140, label %141, label %159

141:                                              ; preds = %135
  %142 = load ptr, ptr %15, align 8
  %143 = load ptr, ptr %142, align 8
  %144 = load i8, ptr %143, align 1
  %145 = zext i8 %144 to i32
  %146 = icmp sle i32 %145, 102
  br i1 %146, label %147, label %159

147:                                              ; preds = %141
  %148 = load i8, ptr %22, align 1
  %149 = zext i8 %148 to i32
  %150 = shl i32 %149, 4
  %151 = load ptr, ptr %15, align 8
  %152 = load ptr, ptr %151, align 8
  %153 = load i8, ptr %152, align 1
  %154 = zext i8 %153 to i32
  %155 = sub nsw i32 %154, 97
  %156 = add nsw i32 %155, 10
  %157 = add nsw i32 %150, %156
  %158 = trunc i32 %157 to i8
  store i8 %158, ptr %22, align 1
  br label %187

159:                                              ; preds = %141, %135
  %160 = load ptr, ptr %15, align 8
  %161 = load ptr, ptr %160, align 8
  %162 = load i8, ptr %161, align 1
  %163 = zext i8 %162 to i32
  %164 = icmp sge i32 %163, 65
  br i1 %164, label %165, label %183

165:                                              ; preds = %159
  %166 = load ptr, ptr %15, align 8
  %167 = load ptr, ptr %166, align 8
  %168 = load i8, ptr %167, align 1
  %169 = zext i8 %168 to i32
  %170 = icmp sle i32 %169, 70
  br i1 %170, label %171, label %183

171:                                              ; preds = %165
  %172 = load i8, ptr %22, align 1
  %173 = zext i8 %172 to i32
  %174 = shl i32 %173, 4
  %175 = load ptr, ptr %15, align 8
  %176 = load ptr, ptr %175, align 8
  %177 = load i8, ptr %176, align 1
  %178 = zext i8 %177 to i32
  %179 = sub nsw i32 %178, 65
  %180 = add nsw i32 %179, 10
  %181 = add nsw i32 %174, %180
  %182 = trunc i32 %181 to i8
  store i8 %182, ptr %22, align 1
  br label %186

183:                                              ; preds = %165, %159
  %184 = load ptr, ptr %20, align 8
  store ptr %184, ptr %13, align 8
  %185 = load ptr, ptr %13, align 8
  call void @_efree(ptr noundef %185) #9
  store ptr null, ptr %14, align 8
  br label %214

186:                                              ; preds = %171
  br label %187

187:                                              ; preds = %186, %147
  br label %188

188:                                              ; preds = %187, %124
  br label %189

189:                                              ; preds = %188
  %190 = load i64, ptr %19, align 8
  %191 = add i64 %190, 1
  store i64 %191, ptr %19, align 8
  br label %106

192:                                              ; preds = %106
  %193 = load i8, ptr %22, align 1
  %194 = load ptr, ptr %20, align 8
  %195 = getelementptr inbounds %struct._zend_string, ptr %194, i32 0, i32 3
  %196 = load i64, ptr %18, align 8
  %197 = getelementptr inbounds [1 x i8], ptr %195, i64 0, i64 %196
  store i8 %193, ptr %197, align 1
  br label %198

198:                                              ; preds = %192, %97
  %199 = load ptr, ptr %15, align 8
  %200 = load ptr, ptr %199, align 8
  %201 = getelementptr inbounds i8, ptr %200, i32 1
  store ptr %201, ptr %199, align 8
  br label %202

202:                                              ; preds = %198
  %203 = load i64, ptr %18, align 8
  %204 = add i64 %203, 1
  store i64 %204, ptr %18, align 8
  br label %79

205:                                              ; preds = %79
  %206 = load ptr, ptr %20, align 8
  %207 = getelementptr inbounds %struct._zend_string, ptr %206, i32 0, i32 3
  %208 = load i64, ptr %18, align 8
  %209 = getelementptr inbounds [1 x i8], ptr %207, i64 0, i64 %208
  store i8 0, ptr %209, align 1
  %210 = load i64, ptr %18, align 8
  %211 = load ptr, ptr %20, align 8
  %212 = getelementptr inbounds %struct._zend_string, ptr %211, i32 0, i32 2
  store i64 %210, ptr %212, align 8
  %213 = load ptr, ptr %20, align 8
  store ptr %213, ptr %14, align 8
  br label %214

214:                                              ; preds = %205, %183, %88, %75
  %215 = load ptr, ptr %14, align 8
  ret ptr %215
}