; Function Attrs: nounwind uwtable
define internal fastcc noundef ptr @unserialize_str(ptr nocapture noundef %0, i64 noundef %1, i64 noundef %2) unnamed_addr #0 {
  %4 = tail call noalias ptr @_safe_emalloc(i64 noundef 1, i64 noundef %1, i64 noundef 32) #13
  store i32 1, ptr %4, align 4
  %5 = getelementptr inbounds i8, ptr %4, i64 4
  store i32 22, ptr %5, align 4
  %6 = getelementptr inbounds i8, ptr %4, i64 8
  store i64 0, ptr %6, align 8
  %7 = getelementptr inbounds i8, ptr %4, i64 16
  store i64 %1, ptr %7, align 8
  %8 = load ptr, ptr %0, align 8
  %9 = getelementptr inbounds i8, ptr %8, i64 %2
  %10 = icmp slt i64 %2, 0
  br i1 %10, label %12, label %.preheader73

.preheader73:                                     ; preds = %3
  %.not84 = icmp eq i64 %1, 0
  br i1 %.not84, label %._crit_edge, label %.lr.ph

.lr.ph:                                           ; preds = %.preheader73
  %11 = getelementptr inbounds i8, ptr %4, i64 24
  br label %13

12:                                               ; preds = %3
  tail call void @_efree(ptr noundef nonnull %4) #13
  br label %44

13:                                               ; preds = %.lr.ph, %.loopexit
  %.promoted81 = phi ptr [ %8, %.lr.ph ], [ %40, %.loopexit ]
  %.06379 = phi i64 [ 0, %.lr.ph ], [ %41, %.loopexit ]
  %.not = icmp ult ptr %.promoted81, %9
  br i1 %.not, label %15, label %14

14:                                               ; preds = %13
  tail call void @_efree(ptr noundef nonnull %4) #13
  br label %44

15:                                               ; preds = %13
  %16 = load i8, ptr %.promoted81, align 1
  %.not70 = icmp eq i8 %16, 92
  br i1 %.not70, label %.preheader, label %.loopexit

.preheader:                                       ; preds = %15, %38
  %.078 = phi i8 [ %.1, %38 ], [ 0, %15 ]
  %17 = phi i1 [ false, %38 ], [ true, %15 ]
  %18 = phi ptr [ %19, %38 ], [ %.promoted81, %15 ]
  %19 = getelementptr inbounds i8, ptr %18, i64 1
  store ptr %19, ptr %0, align 8
  %20 = load i8, ptr %19, align 1
  %21 = add i8 %20, -48
  %or.cond = icmp ult i8 %21, 10
  br i1 %or.cond, label %22, label %25

22:                                               ; preds = %.preheader
  %23 = shl i8 %.078, 4
  %24 = or disjoint i8 %21, %23
  br label %38

25:                                               ; preds = %.preheader
  %26 = add i8 %20, -97
  %or.cond71 = icmp ult i8 %26, 6
  br i1 %or.cond71, label %27, label %31

27:                                               ; preds = %25
  %28 = shl i8 %.078, 4
  %29 = add i8 %28, -87
  %30 = add i8 %29, %20
  br label %38

31:                                               ; preds = %25
  %32 = add i8 %20, -65
  %or.cond72 = icmp ult i8 %32, 6
  br i1 %or.cond72, label %33, label %37

33:                                               ; preds = %31
  %34 = shl i8 %.078, 4
  %35 = add i8 %34, -55
  %36 = add i8 %35, %20
  br label %38

37:                                               ; preds = %31
  tail call void @_efree(ptr noundef nonnull %4) #13
  br label %44

38:                                               ; preds = %22, %33, %27
  %.1 = phi i8 [ %24, %22 ], [ %30, %27 ], [ %36, %33 ]
  br i1 %17, label %.preheader, label %.loopexit

.loopexit:                                        ; preds = %38, %15
  %.1.lcssa.sink = phi i8 [ %16, %15 ], [ %.1, %38 ]
  %.promoted82 = phi ptr [ %.promoted81, %15 ], [ %19, %38 ]
  %39 = getelementptr inbounds [1 x i8], ptr %11, i64 0, i64 %.06379
  store i8 %.1.lcssa.sink, ptr %39, align 1
  %40 = getelementptr inbounds i8, ptr %.promoted82, i64 1
  store ptr %40, ptr %0, align 8
  %41 = add nuw i64 %.06379, 1
  %exitcond.not = icmp eq i64 %41, %1
  br i1 %exitcond.not, label %._crit_edge, label %13

._crit_edge:                                      ; preds = %.loopexit, %.preheader73
  %42 = getelementptr inbounds i8, ptr %4, i64 24
  %43 = getelementptr inbounds [1 x i8], ptr %42, i64 0, i64 %1
  store i8 0, ptr %43, align 1
  store i64 %1, ptr %7, align 8
  br label %44

44:                                               ; preds = %._crit_edge, %37, %14, %12
  %.062 = phi ptr [ null, %12 ], [ null, %14 ], [ null, %37 ], [ %4, %._crit_edge ]
  ret ptr %.062
}